target datalayout = "e-m:e-p270:32:32-p271:32:32-p272:64:64-i64:64-i128:128-f80:128-n8:16:32:64-S128"
target triple = "x86_64-pc-linux-gnu"

@.str.3 = private unnamed_addr constant [11 x i8] c"postgres.c\00", align 1
@.str.15 = private unnamed_addr constant [25 x i8] c"floating-point exception\00", align 1
@.str.16 = private unnamed_addr constant [144 x i8] c"An invalid floating-point operation was signaled. This probably means an out-of-range result or an invalid operation, such as division by zero.\00", align 1
@__func__.FloatExceptionHandler = private unnamed_addr constant [22 x i8] c"FloatExceptionHandler\00", align 1

; Function Attrs: noreturn nounwind uwtable
define dso_local void @FloatExceptionHandler(i32 noundef %0) #8 {
  %2 = alloca i32, align 4
  store i32 %0, ptr %2, align 4
  br label %3

3:                                                ; preds = %1
  br i1 true, label %4, label %6

4:                                                ; preds = %3
  %5 = call zeroext i1 @errstart_cold(i32 noundef 21, ptr noundef null) #18
  br i1 %5, label %8, label %12

6:                                                ; preds = %3
  %7 = call zeroext i1 @errstart(i32 noundef 21, ptr noundef null)
  br i1 %7, label %8, label %12

8:                                                ; preds = %6, %4
  %9 = call i32 @errcode(i32 noundef 16908418)
  %10 = call i32 (ptr, ...) @errmsg(ptr noundef @.str.15)
  %11 = call i32 (ptr, ...) @errdetail(ptr noundef @.str.16)
  call void @errfinish(ptr noundef @.str.3, i32 noundef 3056, ptr noundef @__func__.FloatExceptionHandler)
  br label %12

12:                                               ; preds = %8, %6, %4
  unreachable

13:                                               ; No predecessors!
  unreachable
}