; Function Attrs: cold noreturn nounwind uwtable
define dso_local void @FloatExceptionHandler(i32 %0) #8 {
  %2 = tail call zeroext i1 @errstart_cold(i32 noundef 21, ptr noundef null) #23
  tail call void @llvm.assume(i1 %2)
  %3 = tail call i32 @errcode(i32 noundef 16908418) #22
  %4 = tail call i32 (ptr, ...) @errmsg(ptr noundef nonnull @.str.15) #22
  %5 = tail call i32 (ptr, ...) @errdetail(ptr noundef nonnull @.str.16) #22
  tail call void @errfinish(ptr noundef nonnull @.str.3, i32 noundef 3056, ptr noundef nonnull @__func__.FloatExceptionHandler) #22
  unreachable
}